target datalayout = "e-m:e-p270:32:32-p271:32:32-p272:64:64-i64:64-i128:128-f80:128-n8:16:32:64-S128"
target triple = "x86_64-pc-linux-gnu"

%"class.std::__cxx11::basic_string" = type { %"struct.std::__cxx11::basic_string<char>::_Alloc_hider", i64, %union.anon }
%"struct.std::__cxx11::basic_string<char>::_Alloc_hider" = type { ptr }
%union.anon = type { i64, [8 x i8] }
%"class.osgeo::proj::common::UnitOfMeasure" = type { %"class.osgeo::proj::util::BaseObject", %"class.std::unique_ptr.278" }
%"class.osgeo::proj::util::BaseObject" = type { ptr, %"class.std::unique_ptr" }
%"class.std::unique_ptr" = type { %"struct.std::__uniq_ptr_data" }
%"struct.std::__uniq_ptr_data" = type { %"class.std::__uniq_ptr_impl" }
%"class.std::__uniq_ptr_impl" = type { %"class.std::tuple" }
%"class.std::tuple" = type { %"struct.std::_Tuple_impl" }
%"struct.std::_Tuple_impl" = type { %"struct.std::_Head_base.1" }
%"struct.std::_Head_base.1" = type { ptr }
%"class.std::unique_ptr.278" = type { %"struct.std::__uniq_ptr_data.279" }
%"struct.std::__uniq_ptr_data.279" = type { %"class.std::__uniq_ptr_impl.280" }
%"class.std::__uniq_ptr_impl.280" = type { %"class.std::tuple.281" }
%"class.std::tuple.281" = type { %"struct.std::_Tuple_impl.282" }
%"struct.std::_Tuple_impl.282" = type { %"struct.std::_Head_base.285" }
%"struct.std::_Head_base.285" = type { ptr }

@_ZN5osgeo4proj6common13UnitOfMeasure5METREE = external global %"class.osgeo::proj::common::UnitOfMeasure", align 8
@.str.14 = private unnamed_addr constant [19 x i8] c"X-axis translation\00", align 1
@.str.15 = private unnamed_addr constant [19 x i8] c"Y-axis translation\00", align 1
@.str.16 = private unnamed_addr constant [19 x i8] c"Z-axis translation\00", align 1
@.str.17 = private unnamed_addr constant [16 x i8] c"X-axis rotation\00", align 1
@_ZN5osgeo4proj6common13UnitOfMeasure10ARC_SECONDE = external global %"class.osgeo::proj::common::UnitOfMeasure", align 8
@.str.18 = private unnamed_addr constant [16 x i8] c"Y-axis rotation\00", align 1
@.str.19 = private unnamed_addr constant [16 x i8] c"Z-axis rotation\00", align 1
@.str.20 = private unnamed_addr constant [17 x i8] c"Scale difference\00", align 1
@_ZN5osgeo4proj6common13UnitOfMeasure17PARTS_PER_MILLIONE = external global %"class.osgeo::proj::common::UnitOfMeasure", align 8

; Function Attrs: noinline noreturn nounwind uwtable
define linkonce_odr hidden void @__clang_call_terminate(ptr noundef %0) #13 comdat {
  %2 = call ptr @__cxa_begin_catch(ptr %0) #18
  call void @_ZSt9terminatev() #30
  unreachable
}

; Function Attrs: mustprogress nounwind uwtable
define available_externally noundef ptr @_ZNKSt7__cxx1112basic_stringIcSt11char_traitsIcESaIcEE7_M_dataEv(ptr noundef nonnull align 8 dereferenceable(32) %0) #1 align 2 {
  %2 = alloca ptr, align 8
  store ptr %0, ptr %2, align 8, !tbaa !8
  %3 = load ptr, ptr %2, align 8
  %4 = getelementptr inbounds nuw %"class.std::__cxx11::basic_string", ptr %3, i32 0, i32 0
  %5 = getelementptr inbounds nuw %"struct.std::__cxx11::basic_string<char>::_Alloc_hider", ptr %4, i32 0, i32 0
  %6 = load ptr, ptr %5, align 8, !tbaa !879
  ret ptr %6
}

; Function Attrs: mustprogress nounwind uwtable
define available_externally noundef ptr @_ZNKSt7__cxx1112basic_stringIcSt11char_traitsIcESaIcEE5c_strEv(ptr noundef nonnull align 8 dereferenceable(32) %0) #1 align 2 personality ptr @__gxx_personality_v0 {
  %2 = alloca ptr, align 8
  store ptr %0, ptr %2, align 8, !tbaa !8
  %3 = load ptr, ptr %2, align 8
  %4 = invoke noundef ptr @_ZNKSt7__cxx1112basic_stringIcSt11char_traitsIcESaIcEE7_M_dataEv(ptr noundef nonnull align 8 dereferenceable(32) %3)
          to label %5 unwind label %6

5:                                                ; preds = %1
  ret ptr %4

6:                                                ; preds = %1
  %7 = landingpad { ptr, i32 }
          catch ptr null
  %8 = extractvalue { ptr, i32 } %7, 0
  call void @__clang_call_terminate(ptr %8) #30
  unreachable
}

; Function Attrs: mustprogress nounwind uwtable
define hidden noundef zeroext i1 @_ZN5osgeo4proj9operation23OperationParameterValue19convertFromAbridgedERKNSt7__cxx1112basic_stringIcSt11char_traitsIcESaIcEEERdRPKNS0_6common13UnitOfMeasureERi(ptr noundef nonnull align 8 dereferenceable(32) %0, ptr noundef nonnull align 8 dereferenceable(8) %1, ptr noundef nonnull align 8 dereferenceable(8) %2, ptr noundef nonnull align 4 dereferenceable(4) %3) #1 align 2 {
  %5 = alloca i1, align 1
  %6 = alloca ptr, align 8
  %7 = alloca ptr, align 8
  %8 = alloca ptr, align 8
  %9 = alloca ptr, align 8
  store ptr %0, ptr %6, align 8, !tbaa !8
  store ptr %1, ptr %7, align 8, !tbaa !282
  store ptr %2, ptr %8, align 8, !tbaa !284
  store ptr %3, ptr %9, align 8, !tbaa !286
  %10 = load ptr, ptr %6, align 8, !tbaa !8
  %11 = call noundef ptr @_ZNKSt7__cxx1112basic_stringIcSt11char_traitsIcESaIcEE5c_strEv(ptr noundef nonnull align 8 dereferenceable(32) %10) #18
  %12 = call noundef zeroext i1 @_ZN5osgeo4proj8metadata10Identifier16isEquivalentNameEPKcS4_(ptr noundef %11, ptr noundef @.str.14) #18
  br i1 %12, label %17, label %13

13:                                               ; preds = %4
  %14 = load ptr, ptr %9, align 8, !tbaa !286
  %15 = load i32, ptr %14, align 4, !tbaa !206
  %16 = icmp eq i32 %15, 8605
  br i1 %16, label %17, label %20

17:                                               ; preds = %13, %4
  %18 = load ptr, ptr %8, align 8, !tbaa !284
  store ptr @_ZN5osgeo4proj6common13UnitOfMeasure5METREE, ptr %18, align 8, !tbaa !280
  %19 = load ptr, ptr %9, align 8, !tbaa !286
  store i32 8605, ptr %19, align 4, !tbaa !206
  store i1 true, ptr %5, align 1
  br label %98

20:                                               ; preds = %13
  %21 = load ptr, ptr %6, align 8, !tbaa !8
  %22 = call noundef ptr @_ZNKSt7__cxx1112basic_stringIcSt11char_traitsIcESaIcEE5c_strEv(ptr noundef nonnull align 8 dereferenceable(32) %21) #18
  %23 = call noundef zeroext i1 @_ZN5osgeo4proj8metadata10Identifier16isEquivalentNameEPKcS4_(ptr noundef %22, ptr noundef @.str.15) #18
  br i1 %23, label %28, label %24

24:                                               ; preds = %20
  %25 = load ptr, ptr %9, align 8, !tbaa !286
  %26 = load i32, ptr %25, align 4, !tbaa !206
  %27 = icmp eq i32 %26, 8606
  br i1 %27, label %28, label %31

28:                                               ; preds = %24, %20
  %29 = load ptr, ptr %8, align 8, !tbaa !284
  store ptr @_ZN5osgeo4proj6common13UnitOfMeasure5METREE, ptr %29, align 8, !tbaa !280
  %30 = load ptr, ptr %9, align 8, !tbaa !286
  store i32 8606, ptr %30, align 4, !tbaa !206
  store i1 true, ptr %5, align 1
  br label %98

31:                                               ; preds = %24
  %32 = load ptr, ptr %6, align 8, !tbaa !8
  %33 = call noundef ptr @_ZNKSt7__cxx1112basic_stringIcSt11char_traitsIcESaIcEE5c_strEv(ptr noundef nonnull align 8 dereferenceable(32) %32) #18
  %34 = call noundef zeroext i1 @_ZN5osgeo4proj8metadata10Identifier16isEquivalentNameEPKcS4_(ptr noundef %33, ptr noundef @.str.16) #18
  br i1 %34, label %39, label %35

35:                                               ; preds = %31
  %36 = load ptr, ptr %9, align 8, !tbaa !286
  %37 = load i32, ptr %36, align 4, !tbaa !206
  %38 = icmp eq i32 %37, 8607
  br i1 %38, label %39, label %42

39:                                               ; preds = %35, %31
  %40 = load ptr, ptr %8, align 8, !tbaa !284
  store ptr @_ZN5osgeo4proj6common13UnitOfMeasure5METREE, ptr %40, align 8, !tbaa !280
  %41 = load ptr, ptr %9, align 8, !tbaa !286
  store i32 8607, ptr %41, align 4, !tbaa !206
  store i1 true, ptr %5, align 1
  br label %98

42:                                               ; preds = %35
  %43 = load ptr, ptr %6, align 8, !tbaa !8
  %44 = call noundef ptr @_ZNKSt7__cxx1112basic_stringIcSt11char_traitsIcESaIcEE5c_strEv(ptr noundef nonnull align 8 dereferenceable(32) %43) #18
  %45 = call noundef zeroext i1 @_ZN5osgeo4proj8metadata10Identifier16isEquivalentNameEPKcS4_(ptr noundef %44, ptr noundef @.str.17) #18
  br i1 %45, label %50, label %46

46:                                               ; preds = %42
  %47 = load ptr, ptr %9, align 8, !tbaa !286
  %48 = load i32, ptr %47, align 4, !tbaa !206
  %49 = icmp eq i32 %48, 8608
  br i1 %49, label %50, label %53

50:                                               ; preds = %46, %42
  %51 = load ptr, ptr %8, align 8, !tbaa !284
  store ptr @_ZN5osgeo4proj6common13UnitOfMeasure10ARC_SECONDE, ptr %51, align 8, !tbaa !280
  %52 = load ptr, ptr %9, align 8, !tbaa !286
  store i32 8608, ptr %52, align 4, !tbaa !206
  store i1 true, ptr %5, align 1
  br label %98

53:                                               ; preds = %46
  %54 = load ptr, ptr %6, align 8, !tbaa !8
  %55 = call noundef ptr @_ZNKSt7__cxx1112basic_stringIcSt11char_traitsIcESaIcEE5c_strEv(ptr noundef nonnull align 8 dereferenceable(32) %54) #18
  %56 = call noundef zeroext i1 @_ZN5osgeo4proj8metadata10Identifier16isEquivalentNameEPKcS4_(ptr noundef %55, ptr noundef @.str.18) #18
  br i1 %56, label %61, label %57

57:                                               ; preds = %53
  %58 = load ptr, ptr %9, align 8, !tbaa !286
  %59 = load i32, ptr %58, align 4, !tbaa !206
  %60 = icmp eq i32 %59, 8609
  br i1 %60, label %61, label %64

61:                                               ; preds = %57, %53
  %62 = load ptr, ptr %8, align 8, !tbaa !284
  store ptr @_ZN5osgeo4proj6common13UnitOfMeasure10ARC_SECONDE, ptr %62, align 8, !tbaa !280
  %63 = load ptr, ptr %9, align 8, !tbaa !286
  store i32 8609, ptr %63, align 4, !tbaa !206
  store i1 true, ptr %5, align 1
  br label %98

64:                                               ; preds = %57
  %65 = load ptr, ptr %6, align 8, !tbaa !8
  %66 = call noundef ptr @_ZNKSt7__cxx1112basic_stringIcSt11char_traitsIcESaIcEE5c_strEv(ptr noundef nonnull align 8 dereferenceable(32) %65) #18
  %67 = call noundef zeroext i1 @_ZN5osgeo4proj8metadata10Identifier16isEquivalentNameEPKcS4_(ptr noundef %66, ptr noundef @.str.19) #18
  br i1 %67, label %72, label %68

68:                                               ; preds = %64
  %69 = load ptr, ptr %9, align 8, !tbaa !286
  %70 = load i32, ptr %69, align 4, !tbaa !206
  %71 = icmp eq i32 %70, 8610
  br i1 %71, label %72, label %75

72:                                               ; preds = %68, %64
  %73 = load ptr, ptr %8, align 8, !tbaa !284
  store ptr @_ZN5osgeo4proj6common13UnitOfMeasure10ARC_SECONDE, ptr %73, align 8, !tbaa !280
  %74 = load ptr, ptr %9, align 8, !tbaa !286
  store i32 8610, ptr %74, align 4, !tbaa !206
  store i1 true, ptr %5, align 1
  br label %98

75:                                               ; preds = %68
  %76 = load ptr, ptr %6, align 8, !tbaa !8
  %77 = call noundef ptr @_ZNKSt7__cxx1112basic_stringIcSt11char_traitsIcESaIcEE5c_strEv(ptr noundef nonnull align 8 dereferenceable(32) %76) #18
  %78 = call noundef zeroext i1 @_ZN5osgeo4proj8metadata10Identifier16isEquivalentNameEPKcS4_(ptr noundef %77, ptr noundef @.str.20) #18
  br i1 %78, label %83, label %79

79:                                               ; preds = %75
  %80 = load ptr, ptr %9, align 8, !tbaa !286
  %81 = load i32, ptr %80, align 4, !tbaa !206
  %82 = icmp eq i32 %81, 8611
  br i1 %82, label %83, label %91

83:                                               ; preds = %79, %75
  %84 = load ptr, ptr %7, align 8, !tbaa !282
  %85 = load double, ptr %84, align 8, !tbaa !288
  %86 = fsub double %85, 1.000000e+00
  %87 = fmul double %86, 1.000000e+06
  %88 = load ptr, ptr %7, align 8, !tbaa !282
  store double %87, ptr %88, align 8, !tbaa !288
  %89 = load ptr, ptr %8, align 8, !tbaa !284
  store ptr @_ZN5osgeo4proj6common13UnitOfMeasure17PARTS_PER_MILLIONE, ptr %89, align 8, !tbaa !280
  %90 = load ptr, ptr %9, align 8, !tbaa !286
  store i32 8611, ptr %90, align 4, !tbaa !206
  store i1 true, ptr %5, align 1
  br label %98

91:                                               ; preds = %79
  br label %92

92:                                               ; preds = %91
  br label %93

93:                                               ; preds = %92
  br label %94

94:                                               ; preds = %93
  br label %95

95:                                               ; preds = %94
  br label %96

96:                                               ; preds = %95
  br label %97

97:                                               ; preds = %96
  store i1 false, ptr %5, align 1
  br label %98

98:                                               ; preds = %97, %83, %72, %61, %50, %39, %28, %17
  %99 = load i1, ptr %5, align 1
  ret i1 %99
}