; Function Attrs: mustprogress nounwind uwtable
define hidden noundef zeroext i1 @_ZN5osgeo4proj9operation23OperationParameterValue19convertFromAbridgedERKNSt7__cxx1112basic_stringIcSt11char_traitsIcESaIcEEERdRPKNS0_6common13UnitOfMeasureERi(ptr noundef nonnull readonly align 8 captures(none) dereferenceable(32) %0, ptr noundef nonnull align 8 captures(none) dereferenceable(8) %1, ptr noundef nonnull writeonly align 8 captures(none) dereferenceable(8) %2, ptr noundef nonnull align 4 captures(none) dereferenceable(4) %3) local_unnamed_addr #1 align 2 personality ptr @__gxx_personality_v0 {
  %5 = load ptr, ptr %0, align 8, !tbaa !20
  %6 = tail call noundef zeroext i1 @_ZN5osgeo4proj8metadata10Identifier16isEquivalentNameEPKcS4_(ptr noundef %5, ptr noundef nonnull @.str.14) #46
  %7 = load i32, ptr %3, align 4
  %8 = icmp eq i32 %7, 8605
  %or.cond = select i1 %6, i1 true, i1 %8
  br i1 %or.cond, label %.sink.split, label %9

9:                                                ; preds = %4
  %10 = load ptr, ptr %0, align 8, !tbaa !20
  %11 = tail call noundef zeroext i1 @_ZN5osgeo4proj8metadata10Identifier16isEquivalentNameEPKcS4_(ptr noundef %10, ptr noundef nonnull @.str.15) #46
  %12 = load i32, ptr %3, align 4
  %13 = icmp eq i32 %12, 8606
  %or.cond33 = select i1 %11, i1 true, i1 %13
  br i1 %or.cond33, label %.sink.split, label %14

14:                                               ; preds = %9
  %15 = load ptr, ptr %0, align 8, !tbaa !20
  %16 = tail call noundef zeroext i1 @_ZN5osgeo4proj8metadata10Identifier16isEquivalentNameEPKcS4_(ptr noundef %15, ptr noundef nonnull @.str.16) #46
  %17 = load i32, ptr %3, align 4
  %18 = icmp eq i32 %17, 8607
  %or.cond35 = select i1 %16, i1 true, i1 %18
  br i1 %or.cond35, label %.sink.split, label %19

19:                                               ; preds = %14
  %20 = load ptr, ptr %0, align 8, !tbaa !20
  %21 = tail call noundef zeroext i1 @_ZN5osgeo4proj8metadata10Identifier16isEquivalentNameEPKcS4_(ptr noundef %20, ptr noundef nonnull @.str.17) #46
  %22 = load i32, ptr %3, align 4
  %23 = icmp eq i32 %22, 8608
  %or.cond37 = select i1 %21, i1 true, i1 %23
  br i1 %or.cond37, label %.sink.split, label %24

24:                                               ; preds = %19
  %25 = load ptr, ptr %0, align 8, !tbaa !20
  %26 = tail call noundef zeroext i1 @_ZN5osgeo4proj8metadata10Identifier16isEquivalentNameEPKcS4_(ptr noundef %25, ptr noundef nonnull @.str.18) #46
  %27 = load i32, ptr %3, align 4
  %28 = icmp eq i32 %27, 8609
  %or.cond39 = select i1 %26, i1 true, i1 %28
  br i1 %or.cond39, label %.sink.split, label %29

29:                                               ; preds = %24
  %30 = load ptr, ptr %0, align 8, !tbaa !20
  %31 = tail call noundef zeroext i1 @_ZN5osgeo4proj8metadata10Identifier16isEquivalentNameEPKcS4_(ptr noundef %30, ptr noundef nonnull @.str.19) #46
  %32 = load i32, ptr %3, align 4
  %33 = icmp eq i32 %32, 8610
  %or.cond41 = select i1 %31, i1 true, i1 %33
  br i1 %or.cond41, label %.sink.split, label %34

34:                                               ; preds = %29
  %35 = load ptr, ptr %0, align 8, !tbaa !20
  %36 = tail call noundef zeroext i1 @_ZN5osgeo4proj8metadata10Identifier16isEquivalentNameEPKcS4_(ptr noundef %35, ptr noundef nonnull @.str.20) #46
  %37 = load i32, ptr %3, align 4
  %38 = icmp eq i32 %37, 8611
  %or.cond43 = select i1 %36, i1 true, i1 %38
  br i1 %or.cond43, label %39, label %43

39:                                               ; preds = %34
  %40 = load double, ptr %1, align 8, !tbaa !285
  %41 = fadd double %40, -1.000000e+00
  %42 = fmul double %41, 1.000000e+06
  store double %42, ptr %1, align 8, !tbaa !285
  br label %.sink.split

.sink.split:                                      ; preds = %29, %24, %19, %14, %9, %4, %39
  %_ZN5osgeo4proj6common13UnitOfMeasure17PARTS_PER_MILLIONE.sink = phi ptr [ @_ZN5osgeo4proj6common13UnitOfMeasure17PARTS_PER_MILLIONE, %39 ], [ @_ZN5osgeo4proj6common13UnitOfMeasure5METREE, %4 ], [ @_ZN5osgeo4proj6common13UnitOfMeasure5METREE, %9 ], [ @_ZN5osgeo4proj6common13UnitOfMeasure5METREE, %14 ], [ @_ZN5osgeo4proj6common13UnitOfMeasure10ARC_SECONDE, %19 ], [ @_ZN5osgeo4proj6common13UnitOfMeasure10ARC_SECONDE, %24 ], [ @_ZN5osgeo4proj6common13UnitOfMeasure10ARC_SECONDE, %29 ]
  %.sink = phi i32 [ 8611, %39 ], [ 8605, %4 ], [ 8606, %9 ], [ 8607, %14 ], [ 8608, %19 ], [ 8609, %24 ], [ 8610, %29 ]
  store ptr %_ZN5osgeo4proj6common13UnitOfMeasure17PARTS_PER_MILLIONE.sink, ptr %2, align 8, !tbaa !287
  store i32 %.sink, ptr %3, align 4, !tbaa !54
  br label %43

43:                                               ; preds = %.sink.split, %34
  %.0 = phi i1 [ false, %34 ], [ true, %.sink.split ]
  ret i1 %.0
}